target datalayout = "e-m:e-p270:32:32-p271:32:32-p272:64:64-i64:64-i128:128-f80:128-n8:16:32:64-S128"
target triple = "x86_64-unknown-linux-gnu"

%"class.std::__cxx11::basic_string" = type { %"struct.std::__cxx11::basic_string<char>::_Alloc_hider", i64, %union.anon }
%"struct.std::__cxx11::basic_string<char>::_Alloc_hider" = type { ptr }
%union.anon = type { i64, [8 x i8] }
%"class.std::allocator.24" = type { i8 }
%struct._Save_errno = type { i32 }

@_ZN19OpenColorIO_v2_4dev30OCIO_OPTIMIZATION_FLAGS_ENVVARE = external global ptr, align 8
@.str.6 = private unnamed_addr constant [6 x i8] c"stoul\00", align 1

; Function Attrs: mustprogress nounwind uwtable
define linkonce_odr hidden noundef zeroext i1 @_ZZN9__gnu_cxx6__stoaImmcJiEEET0_PFT_PKT1_PPS3_DpT2_EPKcS5_PmS9_EN10_Range_chk6_S_chkEmSt17integral_constantIbLb0EE(i64 noundef %0) #4 comdat align 2 {
entry:
  %.addr = alloca i64, align 8
  store i64 %0, ptr %.addr, align 8
  ret i1 false
}

; Function Attrs: mustprogress nounwind uwtable
define linkonce_odr hidden void @_ZZN9__gnu_cxx6__stoaImmcJiEEET0_PFT_PKT1_PPS3_DpT2_EPKcS5_PmS9_EN11_Save_errnoD2Ev(ptr noundef nonnull align 4 dereferenceable(4) %this) unnamed_addr #4 comdat align 2 {
entry:
  %this.addr = alloca ptr, align 8
  store ptr %this, ptr %this.addr, align 8
  %this1 = load ptr, ptr %this.addr, align 8
  %call = call ptr @__errno_location() #18
  %0 = load i32, ptr %call, align 4
  %cmp = icmp eq i32 %0, 0
  br i1 %cmp, label %if.then, label %if.end

if.then:                                          ; preds = %entry
  %_M_errno = getelementptr inbounds %struct._Save_errno, ptr %this1, i32 0, i32 0
  %1 = load i32, ptr %_M_errno, align 4
  %call2 = call ptr @__errno_location() #18
  store i32 %1, ptr %call2, align 4
  br label %if.end

if.end:                                           ; preds = %if.then, %entry
  ret void
}

; Function Attrs: mustprogress nounwind uwtable
define linkonce_odr hidden void @_ZZN9__gnu_cxx6__stoaImmcJiEEET0_PFT_PKT1_PPS3_DpT2_EPKcS5_PmS9_EN11_Save_errnoC2Ev(ptr noundef nonnull align 4 dereferenceable(4) %this) unnamed_addr #4 comdat align 2 {
entry:
  %this.addr = alloca ptr, align 8
  store ptr %this, ptr %this.addr, align 8
  %this1 = load ptr, ptr %this.addr, align 8
  %_M_errno = getelementptr inbounds %struct._Save_errno, ptr %this1, i32 0, i32 0
  %call = call ptr @__errno_location() #18
  %0 = load i32, ptr %call, align 4
  store i32 %0, ptr %_M_errno, align 4
  %call2 = call ptr @__errno_location() #18
  store i32 0, ptr %call2, align 4
  ret void
}

; Function Attrs: mustprogress uwtable
define linkonce_odr noundef i64 @_ZN9__gnu_cxx6__stoaImmcJiEEET0_PFT_PKT1_PPS3_DpT2_EPKcS5_PmS9_(ptr noundef %__convf, ptr noundef %__name, ptr noundef %__str, ptr noundef %__idx, i32 noundef %__base) #0 comdat personality ptr @__gxx_personality_v0 {
entry:
  %__convf.addr = alloca ptr, align 8
  %__name.addr = alloca ptr, align 8
  %__str.addr = alloca ptr, align 8
  %__idx.addr = alloca ptr, align 8
  %__base.addr = alloca i32, align 4
  %__ret = alloca i64, align 8
  %__endptr = alloca ptr, align 8
  %__save_errno = alloca %struct._Save_errno, align 4
  %__tmp = alloca i64, align 8
  %exn.slot = alloca ptr, align 8
  %ehselector.slot = alloca i32, align 4
  store ptr %__convf, ptr %__convf.addr, align 8
  store ptr %__name, ptr %__name.addr, align 8
  store ptr %__str, ptr %__str.addr, align 8
  store ptr %__idx, ptr %__idx.addr, align 8
  store i32 %__base, ptr %__base.addr, align 4
  call void @_ZZN9__gnu_cxx6__stoaImmcJiEEET0_PFT_PKT1_PPS3_DpT2_EPKcS5_PmS9_EN11_Save_errnoC2Ev(ptr noundef nonnull align 4 dereferenceable(4) %__save_errno)
  %0 = load ptr, ptr %__convf.addr, align 8
  %1 = load ptr, ptr %__str.addr, align 8
  %2 = load i32, ptr %__base.addr, align 4
  %call = invoke noundef i64 %0(ptr noundef %1, ptr noundef %__endptr, i32 noundef %2)
          to label %invoke.cont unwind label %lpad

invoke.cont:                                      ; preds = %entry
  store i64 %call, ptr %__tmp, align 8
  %3 = load ptr, ptr %__endptr, align 8
  %4 = load ptr, ptr %__str.addr, align 8
  %cmp = icmp eq ptr %3, %4
  br i1 %cmp, label %if.then, label %if.else

if.then:                                          ; preds = %invoke.cont
  %5 = load ptr, ptr %__name.addr, align 8
  invoke void @_ZSt24__throw_invalid_argumentPKc(ptr noundef %5) #17
          to label %invoke.cont1 unwind label %lpad

invoke.cont1:                                     ; preds = %if.then
  unreachable

lpad:                                             ; preds = %if.then6, %lor.rhs, %if.then, %entry
  %6 = landingpad { ptr, i32 }
          cleanup
  %7 = extractvalue { ptr, i32 } %6, 0
  store ptr %7, ptr %exn.slot, align 8
  %8 = extractvalue { ptr, i32 } %6, 1
  store i32 %8, ptr %ehselector.slot, align 4
  call void @_ZZN9__gnu_cxx6__stoaImmcJiEEET0_PFT_PKT1_PPS3_DpT2_EPKcS5_PmS9_EN11_Save_errnoD2Ev(ptr noundef nonnull align 4 dereferenceable(4) %__save_errno) #13
  br label %eh.resume

if.else:                                          ; preds = %invoke.cont
  %call2 = call ptr @__errno_location() #18
  %9 = load i32, ptr %call2, align 4
  %cmp3 = icmp eq i32 %9, 34
  br i1 %cmp3, label %lor.end, label %lor.rhs

lor.rhs:                                          ; preds = %if.else
  %10 = load i64, ptr %__tmp, align 8
  %call5 = invoke noundef zeroext i1 @_ZZN9__gnu_cxx6__stoaImmcJiEEET0_PFT_PKT1_PPS3_DpT2_EPKcS5_PmS9_EN10_Range_chk6_S_chkEmSt17integral_constantIbLb0EE(i64 noundef %10)
          to label %invoke.cont4 unwind label %lpad

invoke.cont4:                                     ; preds = %lor.rhs
  br label %lor.end

lor.end:                                          ; preds = %invoke.cont4, %if.else
  %11 = phi i1 [ true, %if.else ], [ %call5, %invoke.cont4 ]
  br i1 %11, label %if.then6, label %if.else8

if.then6:                                         ; preds = %lor.end
  %12 = load ptr, ptr %__name.addr, align 8
  invoke void @_ZSt20__throw_out_of_rangePKc(ptr noundef %12) #17
          to label %invoke.cont7 unwind label %lpad

invoke.cont7:                                     ; preds = %if.then6
  unreachable

if.else8:                                         ; preds = %lor.end
  %13 = load i64, ptr %__tmp, align 8
  store i64 %13, ptr %__ret, align 8
  br label %if.end

if.end:                                           ; preds = %if.else8
  br label %if.end9

if.end9:                                          ; preds = %if.end
  %14 = load ptr, ptr %__idx.addr, align 8
  %tobool = icmp ne ptr %14, null
  br i1 %tobool, label %if.then10, label %if.end11

if.then10:                                        ; preds = %if.end9
  %15 = load ptr, ptr %__endptr, align 8
  %16 = load ptr, ptr %__str.addr, align 8
  %sub.ptr.lhs.cast = ptrtoint ptr %15 to i64
  %sub.ptr.rhs.cast = ptrtoint ptr %16 to i64
  %sub.ptr.sub = sub i64 %sub.ptr.lhs.cast, %sub.ptr.rhs.cast
  %17 = load ptr, ptr %__idx.addr, align 8
  store i64 %sub.ptr.sub, ptr %17, align 8
  br label %if.end11

if.end11:                                         ; preds = %if.then10, %if.end9
  %18 = load i64, ptr %__ret, align 8
  call void @_ZZN9__gnu_cxx6__stoaImmcJiEEET0_PFT_PKT1_PPS3_DpT2_EPKcS5_PmS9_EN11_Save_errnoD2Ev(ptr noundef nonnull align 4 dereferenceable(4) %__save_errno) #13
  ret i64 %18

eh.resume:                                        ; preds = %lpad
  %exn = load ptr, ptr %exn.slot, align 8
  %sel = load i32, ptr %ehselector.slot, align 4
  %lpad.val = insertvalue { ptr, i32 } poison, ptr %exn, 0
  %lpad.val12 = insertvalue { ptr, i32 } %lpad.val, i32 %sel, 1
  resume { ptr, i32 } %lpad.val12
}

; Function Attrs: mustprogress uwtable
define linkonce_odr noundef i64 @_ZNSt7__cxx115stoulERKNS_12basic_stringIcSt11char_traitsIcESaIcEEEPmi(ptr noundef nonnull align 8 dereferenceable(32) %__str, ptr noundef %__idx, i32 noundef %__base) #0 comdat {
entry:
  %__str.addr = alloca ptr, align 8
  %__idx.addr = alloca ptr, align 8
  %__base.addr = alloca i32, align 4
  store ptr %__str, ptr %__str.addr, align 8
  store ptr %__idx, ptr %__idx.addr, align 8
  store i32 %__base, ptr %__base.addr, align 4
  %0 = load ptr, ptr %__str.addr, align 8
  %call = call noundef ptr @_ZNKSt7__cxx1112basic_stringIcSt11char_traitsIcESaIcEE5c_strEv(ptr noundef nonnull align 8 dereferenceable(32) %0) #13
  %1 = load ptr, ptr %__idx.addr, align 8
  %2 = load i32, ptr %__base.addr, align 4
  %call1 = call noundef i64 @_ZN9__gnu_cxx6__stoaImmcJiEEET0_PFT_PKT1_PPS3_DpT2_EPKcS5_PmS9_(ptr noundef @strtoul, ptr noundef @.str.6, ptr noundef %call, ptr noundef %1, i32 noundef %2)
  ret i64 %call1
}

; Function Attrs: mustprogress uwtable
define internal noundef i64 @_ZN19OpenColorIO_v2_4dev12_GLOBAL__N_119EnvironmentOverrideENS_17OptimizationFlagsE(i64 noundef %oFlags) #0 personality ptr @__gxx_personality_v0 {
entry:
  %oFlags.addr = alloca i64, align 8
  %envFlag = alloca %"class.std::__cxx11::basic_string", align 8
  %ref.tmp = alloca %"class.std::allocator.24", align 1
  %exn.slot = alloca ptr, align 8
  %ehselector.slot = alloca i32, align 4
  store i64 %oFlags, ptr %oFlags.addr, align 8
  %0 = load ptr, ptr @_ZN19OpenColorIO_v2_4dev30OCIO_OPTIMIZATION_FLAGS_ENVVARE, align 8
  %call = call noundef ptr @_ZN19OpenColorIO_v2_4dev14GetEnvVariableEPKc(ptr noundef %0)
  call void @_ZNSaIcEC1Ev(ptr noundef nonnull align 1 dereferenceable(1) %ref.tmp) #13
  invoke void @_ZNSt7__cxx1112basic_stringIcSt11char_traitsIcESaIcEEC1EPKcRKS3_(ptr noundef nonnull align 8 dereferenceable(32) %envFlag, ptr noundef %call, ptr noundef nonnull align 1 dereferenceable(1) %ref.tmp)
          to label %invoke.cont unwind label %lpad

invoke.cont:                                      ; preds = %entry
  call void @_ZNSaIcED1Ev(ptr noundef nonnull align 1 dereferenceable(1) %ref.tmp) #13
  %call1 = call noundef zeroext i1 @_ZNKSt7__cxx1112basic_stringIcSt11char_traitsIcESaIcEE5emptyEv(ptr noundef nonnull align 8 dereferenceable(32) %envFlag) #13
  br i1 %call1, label %if.end, label %if.then

if.then:                                          ; preds = %invoke.cont
  %call4 = invoke noundef i64 @_ZNSt7__cxx115stoulERKNS_12basic_stringIcSt11char_traitsIcESaIcEEEPmi(ptr noundef nonnull align 8 dereferenceable(32) %envFlag, ptr noundef null, i32 noundef 0)
          to label %invoke.cont3 unwind label %lpad2

invoke.cont3:                                     ; preds = %if.then
  store i64 %call4, ptr %oFlags.addr, align 8
  br label %if.end

lpad:                                             ; preds = %entry
  %1 = landingpad { ptr, i32 }
          cleanup
  %2 = extractvalue { ptr, i32 } %1, 0
  store ptr %2, ptr %exn.slot, align 8
  %3 = extractvalue { ptr, i32 } %1, 1
  store i32 %3, ptr %ehselector.slot, align 4
  call void @_ZNSaIcED1Ev(ptr noundef nonnull align 1 dereferenceable(1) %ref.tmp) #13
  br label %eh.resume

lpad2:                                            ; preds = %if.then
  %4 = landingpad { ptr, i32 }
          cleanup
  %5 = extractvalue { ptr, i32 } %4, 0
  store ptr %5, ptr %exn.slot, align 8
  %6 = extractvalue { ptr, i32 } %4, 1
  store i32 %6, ptr %ehselector.slot, align 4
  call void @_ZNSt7__cxx1112basic_stringIcSt11char_traitsIcESaIcEED1Ev(ptr noundef nonnull align 8 dereferenceable(32) %envFlag) #13
  br label %eh.resume

if.end:                                           ; preds = %invoke.cont3, %invoke.cont
  %7 = load i64, ptr %oFlags.addr, align 8
  call void @_ZNSt7__cxx1112basic_stringIcSt11char_traitsIcESaIcEED1Ev(ptr noundef nonnull align 8 dereferenceable(32) %envFlag) #13
  ret i64 %7

eh.resume:                                        ; preds = %lpad2, %lpad
  %exn = load ptr, ptr %exn.slot, align 8
  %sel = load i32, ptr %ehselector.slot, align 4
  %lpad.val = insertvalue { ptr, i32 } poison, ptr %exn, 0
  %lpad.val5 = insertvalue { ptr, i32 } %lpad.val, i32 %sel, 1
  resume { ptr, i32 } %lpad.val5
}