; Function Attrs: mustprogress uwtable
define internal fastcc noundef i64 @_ZN19OpenColorIO_v2_4dev12_GLOBAL__N_119EnvironmentOverrideENS_17OptimizationFlagsE(i64 noundef %oFlags) unnamed_addr #0 personality ptr @__gxx_personality_v0 {
entry:
  %__endptr.i.i = alloca ptr, align 8
  %envFlag = alloca %"class.std::__cxx11::basic_string", align 8
  %ref.tmp = alloca %"class.std::allocator.24", align 1
  %0 = load ptr, ptr @_ZN19OpenColorIO_v2_4dev30OCIO_OPTIMIZATION_FLAGS_ENVVARE, align 8
  %call = tail call noundef ptr @_ZN19OpenColorIO_v2_4dev14GetEnvVariableEPKc(ptr noundef %0)
  call void @_ZNSaIcEC1Ev(ptr noundef nonnull align 1 dereferenceable(1) %ref.tmp) #22
  invoke void @_ZNSt7__cxx1112basic_stringIcSt11char_traitsIcESaIcEEC1EPKcRKS3_(ptr noundef nonnull align 8 dereferenceable(32) %envFlag, ptr noundef %call, ptr noundef nonnull align 1 dereferenceable(1) %ref.tmp)
          to label %invoke.cont unwind label %lpad

invoke.cont:                                      ; preds = %entry
  call void @_ZNSaIcED1Ev(ptr noundef nonnull align 1 dereferenceable(1) %ref.tmp) #22
  %call1 = call noundef zeroext i1 @_ZNKSt7__cxx1112basic_stringIcSt11char_traitsIcESaIcEE5emptyEv(ptr noundef nonnull align 8 dereferenceable(32) %envFlag) #22
  br i1 %call1, label %if.end, label %if.then

if.then:                                          ; preds = %invoke.cont
  %call.i = call noundef ptr @_ZNKSt7__cxx1112basic_stringIcSt11char_traitsIcESaIcEE5c_strEv(ptr noundef nonnull align 8 dereferenceable(32) %envFlag) #22
  call void @llvm.lifetime.start.p0(i64 8, ptr nonnull %__endptr.i.i)
  %call.i.i.i = tail call ptr @__errno_location() #27
  %1 = load i32, ptr %call.i.i.i, align 4
  store i32 0, ptr %call.i.i.i, align 4
  %call.i.i = call noundef i64 @strtoul(ptr noundef %call.i, ptr noundef nonnull %__endptr.i.i, i32 noundef 0)
  %2 = load ptr, ptr %__endptr.i.i, align 8
  %cmp.i.i = icmp eq ptr %2, %call.i
  br i1 %cmp.i.i, label %if.then.i.i, label %if.else.i.i

if.then.i.i:                                      ; preds = %if.then
  invoke void @_ZSt24__throw_invalid_argumentPKc(ptr noundef nonnull @.str.6) #24
          to label %invoke.cont1.i.i unwind label %lpad.i.i

invoke.cont1.i.i:                                 ; preds = %if.then.i.i
  unreachable

lpad.i.i:                                         ; preds = %if.then6.i.i, %if.then.i.i
  %3 = landingpad { ptr, i32 }
          cleanup
  %4 = load i32, ptr %call.i.i.i, align 4
  %cmp.i.i.i = icmp eq i32 %4, 0
  br i1 %cmp.i.i.i, label %if.then.i.i.i, label %lpad2.body

if.then.i.i.i:                                    ; preds = %lpad.i.i
  store i32 %1, ptr %call.i.i.i, align 4
  br label %lpad2.body

if.else.i.i:                                      ; preds = %if.then
  %5 = load i32, ptr %call.i.i.i, align 4
  switch i32 %5, label %_ZNSt7__cxx115stoulERKNS_12basic_stringIcSt11char_traitsIcESaIcEEEPmi.exit [
    i32 34, label %if.then6.i.i
    i32 0, label %if.then.i9.i.i
  ]

if.then6.i.i:                                     ; preds = %if.else.i.i
  invoke void @_ZSt20__throw_out_of_rangePKc(ptr noundef nonnull @.str.6) #24
          to label %invoke.cont7.i.i unwind label %lpad.i.i

invoke.cont7.i.i:                                 ; preds = %if.then6.i.i
  unreachable

if.then.i9.i.i:                                   ; preds = %if.else.i.i
  store i32 %1, ptr %call.i.i.i, align 4
  br label %_ZNSt7__cxx115stoulERKNS_12basic_stringIcSt11char_traitsIcESaIcEEEPmi.exit

_ZNSt7__cxx115stoulERKNS_12basic_stringIcSt11char_traitsIcESaIcEEEPmi.exit: ; preds = %if.else.i.i, %if.then.i9.i.i
  call void @llvm.lifetime.end.p0(i64 8, ptr nonnull %__endptr.i.i)
  br label %if.end

lpad:                                             ; preds = %entry
  %6 = landingpad { ptr, i32 }
          cleanup
  call void @_ZNSaIcED1Ev(ptr noundef nonnull align 1 dereferenceable(1) %ref.tmp) #22
  br label %eh.resume

lpad2.body:                                       ; preds = %lpad.i.i, %if.then.i.i.i
  call void @_ZNSt7__cxx1112basic_stringIcSt11char_traitsIcESaIcEED1Ev(ptr noundef nonnull align 8 dereferenceable(32) %envFlag) #22
  br label %eh.resume

if.end:                                           ; preds = %_ZNSt7__cxx115stoulERKNS_12basic_stringIcSt11char_traitsIcESaIcEEEPmi.exit, %invoke.cont
  %oFlags.addr.0 = phi i64 [ %oFlags, %invoke.cont ], [ %call.i.i, %_ZNSt7__cxx115stoulERKNS_12basic_stringIcSt11char_traitsIcESaIcEEEPmi.exit ]
  call void @_ZNSt7__cxx1112basic_stringIcSt11char_traitsIcESaIcEED1Ev(ptr noundef nonnull align 8 dereferenceable(32) %envFlag) #22
  ret i64 %oFlags.addr.0

eh.resume:                                        ; preds = %lpad2.body, %lpad
  %.pn = phi { ptr, i32 } [ %3, %lpad2.body ], [ %6, %lpad ]
  resume { ptr, i32 } %.pn
}